target datalayout = "e-m:e-p270:32:32-p271:32:32-p272:64:64-i64:64-i128:128-f80:128-n8:16:32:64-S128"
target triple = "x86_64-pc-linux-gnu"

; Function Attrs: nounwind uwtable
define dso_local void @gpu_common_underscorify_tolower(ptr noundef %0) #0 {
  %2 = alloca ptr, align 8
  %3 = alloca i32, align 4
  %4 = alloca i32, align 4
  %5 = alloca i32, align 4
  store ptr %0, ptr %2, align 8
  call void @llvm.lifetime.start.p0(i64 4, ptr %3) #6
  store i32 0, ptr %3, align 4
  br label %6

6:                                                ; preds = %46, %1
  %7 = load ptr, ptr %2, align 8
  %8 = load i32, ptr %3, align 4
  %9 = sext i32 %8 to i64
  %10 = getelementptr inbounds i8, ptr %7, i64 %9
  %11 = load i8, ptr %10, align 1
  %12 = icmp ne i8 %11, 0
  br i1 %12, label %14, label %13

13:                                               ; preds = %6
  call void @llvm.lifetime.end.p0(i64 4, ptr %3) #6
  br label %49

14:                                               ; preds = %6
  call void @llvm.lifetime.start.p0(i64 4, ptr %4) #6
  %15 = call ptr @__ctype_tolower_loc() #7
  %16 = load ptr, ptr %15, align 8
  %17 = load ptr, ptr %2, align 8
  %18 = load i32, ptr %3, align 4
  %19 = sext i32 %18 to i64
  %20 = getelementptr inbounds i8, ptr %17, i64 %19
  %21 = load i8, ptr %20, align 1
  %22 = sext i8 %21 to i32
  %23 = sext i32 %22 to i64
  %24 = getelementptr inbounds i32, ptr %16, i64 %23
  %25 = load i32, ptr %24, align 4
  store i32 %25, ptr %4, align 4
  %26 = load i32, ptr %4, align 4
  store i32 %26, ptr %5, align 4
  call void @llvm.lifetime.end.p0(i64 4, ptr %4) #6
  %27 = load i32, ptr %5, align 4
  %28 = trunc i32 %27 to i8
  %29 = load ptr, ptr %2, align 8
  %30 = load i32, ptr %3, align 4
  %31 = sext i32 %30 to i64
  %32 = getelementptr inbounds i8, ptr %29, i64 %31
  store i8 %28, ptr %32, align 1
  %33 = load ptr, ptr %2, align 8
  %34 = load i32, ptr %3, align 4
  %35 = sext i32 %34 to i64
  %36 = getelementptr inbounds i8, ptr %33, i64 %35
  %37 = load i8, ptr %36, align 1
  %38 = sext i8 %37 to i32
  %39 = icmp eq i32 %38, 32
  br i1 %39, label %40, label %45

40:                                               ; preds = %14
  %41 = load ptr, ptr %2, align 8
  %42 = load i32, ptr %3, align 4
  %43 = sext i32 %42 to i64
  %44 = getelementptr inbounds i8, ptr %41, i64 %43
  store i8 95, ptr %44, align 1
  br label %45

45:                                               ; preds = %40, %14
  br label %46

46:                                               ; preds = %45
  %47 = load i32, ptr %3, align 4
  %48 = add nsw i32 %47, 1
  store i32 %48, ptr %3, align 4
  br label %6, !llvm.loop !14

49:                                               ; preds = %13
  ret void
}