; Function Attrs: nofree nosync nounwind memory(read, argmem: readwrite, inaccessiblemem: none) uwtable
define dso_local void @gpu_common_underscorify_tolower(ptr noundef captures(none) %0) local_unnamed_addr #3 {
  %2 = load i8, ptr %0, align 1
  %.not13 = icmp eq i8 %2, 0
  br i1 %.not13, label %._crit_edge, label %.lr.ph

.lr.ph:                                           ; preds = %1
  %3 = tail call ptr @__ctype_tolower_loc() #8
  br label %4

._crit_edge:                                      ; preds = %4, %1
  ret void

4:                                                ; preds = %.lr.ph, %4
  %indvars.iv = phi i64 [ 0, %.lr.ph ], [ %indvars.iv.next, %4 ]
  %5 = phi i8 [ %2, %.lr.ph ], [ %14, %4 ]
  %6 = getelementptr inbounds nuw i8, ptr %0, i64 %indvars.iv
  %7 = load ptr, ptr %3, align 8
  %8 = sext i8 %5 to i64
  %9 = getelementptr inbounds i32, ptr %7, i64 %8
  %10 = load i32, ptr %9, align 4
  %11 = trunc i32 %10 to i8
  %sext.mask = and i32 %10, 255
  %12 = icmp eq i32 %sext.mask, 32
  %spec.select = select i1 %12, i8 95, i8 %11
  store i8 %spec.select, ptr %6, align 1
  %indvars.iv.next = add nuw nsw i64 %indvars.iv, 1
  %13 = getelementptr inbounds nuw i8, ptr %0, i64 %indvars.iv.next
  %14 = load i8, ptr %13, align 1
  %.not = icmp eq i8 %14, 0
  br i1 %.not, label %._crit_edge, label %4, !llvm.loop !12
}